target datalayout = "e-m:e-p270:32:32-p271:32:32-p272:64:64-i64:64-i128:128-f80:128-n8:16:32:64-S128"
target triple = "x86_64-pc-linux-gnu"

%"class.icu_77::Calendar" = type <{ %"class.icu_77::UObject", [24 x i32], [24 x i8], i8, [7 x i8], double, ptr, i8, i16, i8, i32, i32, i32, i8, i8, i16, [4 x i8], ptr, ptr }>
%"class.icu_77::UObject" = type { ptr }
%"class.icu_77::PersianCalendar" = type { %"class.icu_77::Calendar" }
%"class.icu_77::Locale" = type <{ %"class.icu_77::UObject", [12 x i8], [6 x i8], [4 x i8], [2 x i8], i32, [4 x i8], ptr, [157 x i8], [3 x i8], ptr, i8, [7 x i8] }>

@_ZN6icu_7712_GLOBAL__N_126gSystemDefaultCenturyStartE = internal global double 0x10000000000000, align 8
@_ZN6icu_7712_GLOBAL__N_130gSystemDefaultCenturyStartYearE = internal global i32 -1, align 4
@.str.3 = private unnamed_addr constant [18 x i8] c"@calendar=persian\00", align 1
@_ZN6icu_7715PersianCalendarC1ERKNS_6LocaleER10UErrorCode = unnamed_addr alias void (ptr, ptr, ptr), ptr @_ZN6icu_7715PersianCalendarC2ERKNS_6LocaleER10UErrorCode
@_ZN6icu_7715PersianCalendarD1Ev = unnamed_addr alias void (ptr), ptr @_ZN6icu_7715PersianCalendarD2Ev

; Function Attrs: inlinehint mustprogress uwtable
define linkonce_odr noundef double @_ZNK6icu_778Calendar7getTimeER10UErrorCode(ptr noundef nonnull align 8 dereferenceable(192) %0, ptr noundef nonnull align 4 dereferenceable(4) %1) #6 comdat align 2 {
  %3 = alloca ptr, align 8
  %4 = alloca ptr, align 8
  store ptr %0, ptr %3, align 8, !tbaa !32
  store ptr %1, ptr %4, align 8, !tbaa !10
  %5 = load ptr, ptr %3, align 8
  %6 = load ptr, ptr %4, align 8, !tbaa !10
  %7 = call noundef double @_ZNK6icu_778Calendar15getTimeInMillisER10UErrorCode(ptr noundef nonnull align 8 dereferenceable(192) %5, ptr noundef nonnull align 4 dereferenceable(4) %6)
  ret double %7
}

; Function Attrs: inlinehint mustprogress uwtable
define linkonce_odr void @_ZN6icu_778Calendar7setTimeEdR10UErrorCode(ptr noundef nonnull align 8 dereferenceable(192) %0, double noundef %1, ptr noundef nonnull align 4 dereferenceable(4) %2) #6 comdat align 2 {
  %4 = alloca ptr, align 8
  %5 = alloca double, align 8
  %6 = alloca ptr, align 8
  store ptr %0, ptr %4, align 8, !tbaa !32
  store double %1, ptr %5, align 8, !tbaa !34
  store ptr %2, ptr %6, align 8, !tbaa !10
  %7 = load ptr, ptr %4, align 8
  %8 = load double, ptr %5, align 8, !tbaa !34
  %9 = load ptr, ptr %6, align 8, !tbaa !10
  call void @_ZN6icu_778Calendar15setTimeInMillisEdR10UErrorCode(ptr noundef nonnull align 8 dereferenceable(192) %7, double noundef %8, ptr noundef nonnull align 4 dereferenceable(4) %9)
  ret void
}

; Function Attrs: inlinehint mustprogress nounwind uwtable
define internal noundef signext i8 @_ZL9U_FAILURE10UErrorCode(i32 noundef %0) #5 {
  %2 = alloca i32, align 4
  store i32 %0, ptr %2, align 4, !tbaa !28
  %3 = load i32, ptr %2, align 4, !tbaa !28
  %4 = icmp sgt i32 %3, 0
  %5 = zext i1 %4 to i8
  ret i8 %5
}

; Function Attrs: mustprogress uwtable
define internal void @_ZN6icu_7712_GLOBAL__N_130initializeSystemDefaultCenturyEv() #1 personality ptr @__gxx_personality_v0 {
  %1 = alloca i32, align 4
  %2 = alloca %"class.icu_77::PersianCalendar", align 8
  %3 = alloca %"class.icu_77::Locale", align 8
  %4 = alloca ptr, align 8
  %5 = alloca i32, align 4
  %6 = alloca i32, align 4
  call void @llvm.lifetime.start.p0(i64 4, ptr %1) #9
  store i32 0, ptr %1, align 4, !tbaa !28
  call void @llvm.lifetime.start.p0(i64 192, ptr %2) #9
  call void @llvm.lifetime.start.p0(i64 224, ptr %3) #9
  call void @_ZN6icu_776LocaleC1EPKcS2_S2_S2_(ptr noundef nonnull align 8 dereferenceable(217) %3, ptr noundef @.str.3, ptr noundef null, ptr noundef null, ptr noundef null)
  invoke void @_ZN6icu_7715PersianCalendarC1ERKNS_6LocaleER10UErrorCode(ptr noundef nonnull align 8 dereferenceable(192) %2, ptr noundef nonnull align 8 dereferenceable(217) %3, ptr noundef nonnull align 4 dereferenceable(4) %1)
          to label %7 unwind label %12

7:                                                ; preds = %0
  call void @_ZN6icu_776LocaleD1Ev(ptr noundef nonnull align 8 dereferenceable(217) %3) #9
  call void @llvm.lifetime.end.p0(i64 224, ptr %3) #9
  %8 = load i32, ptr %1, align 4, !tbaa !28
  %9 = call noundef signext i8 @_ZL9U_FAILURE10UErrorCode(i32 noundef %8)
  %10 = icmp ne i8 %9, 0
  br i1 %10, label %11, label %16

11:                                               ; preds = %7
  store i32 1, ptr %6, align 4
  br label %25

12:                                               ; preds = %0
  %13 = landingpad { ptr, i32 }
          cleanup
  %14 = extractvalue { ptr, i32 } %13, 0
  store ptr %14, ptr %4, align 8
  %15 = extractvalue { ptr, i32 } %13, 1
  store i32 %15, ptr %5, align 4
  call void @_ZN6icu_776LocaleD1Ev(ptr noundef nonnull align 8 dereferenceable(217) %3) #9
  call void @llvm.lifetime.end.p0(i64 224, ptr %3) #9
  br label %32

16:                                               ; preds = %7
  %17 = invoke noundef double @_ZN6icu_778Calendar6getNowEv()
          to label %18 unwind label %28

18:                                               ; preds = %16
  invoke void @_ZN6icu_778Calendar7setTimeEdR10UErrorCode(ptr noundef nonnull align 8 dereferenceable(192) %2, double noundef %17, ptr noundef nonnull align 4 dereferenceable(4) %1)
          to label %19 unwind label %28

19:                                               ; preds = %18
  invoke void @_ZN6icu_778Calendar3addE19UCalendarDateFieldsiR10UErrorCode(ptr noundef nonnull align 8 dereferenceable(192) %2, i32 noundef 1, i32 noundef -80, ptr noundef nonnull align 4 dereferenceable(4) %1)
          to label %20 unwind label %28

20:                                               ; preds = %19
  %21 = invoke noundef double @_ZNK6icu_778Calendar7getTimeER10UErrorCode(ptr noundef nonnull align 8 dereferenceable(192) %2, ptr noundef nonnull align 4 dereferenceable(4) %1)
          to label %22 unwind label %28

22:                                               ; preds = %20
  store double %21, ptr @_ZN6icu_7712_GLOBAL__N_126gSystemDefaultCenturyStartE, align 8, !tbaa !34
  %23 = invoke noundef i32 @_ZNK6icu_778Calendar3getE19UCalendarDateFieldsR10UErrorCode(ptr noundef nonnull align 8 dereferenceable(192) %2, i32 noundef 1, ptr noundef nonnull align 4 dereferenceable(4) %1)
          to label %24 unwind label %28

24:                                               ; preds = %22
  store i32 %23, ptr @_ZN6icu_7712_GLOBAL__N_130gSystemDefaultCenturyStartYearE, align 4, !tbaa !17
  store i32 0, ptr %6, align 4
  br label %25

25:                                               ; preds = %24, %11
  call void @_ZN6icu_7715PersianCalendarD1Ev(ptr noundef nonnull align 8 dereferenceable(192) %2) #9
  call void @llvm.lifetime.end.p0(i64 192, ptr %2) #9
  call void @llvm.lifetime.end.p0(i64 4, ptr %1) #9
  %26 = load i32, ptr %6, align 4
  switch i32 %26, label %38 [
    i32 0, label %27
    i32 1, label %27
  ]

27:                                               ; preds = %25, %25
  ret void

28:                                               ; preds = %22, %20, %19, %18, %16
  %29 = landingpad { ptr, i32 }
          cleanup
  %30 = extractvalue { ptr, i32 } %29, 0
  store ptr %30, ptr %4, align 8
  %31 = extractvalue { ptr, i32 } %29, 1
  store i32 %31, ptr %5, align 4
  call void @_ZN6icu_7715PersianCalendarD1Ev(ptr noundef nonnull align 8 dereferenceable(192) %2) #9
  br label %32

32:                                               ; preds = %28, %12
  call void @llvm.lifetime.end.p0(i64 192, ptr %2) #9
  call void @llvm.lifetime.end.p0(i64 4, ptr %1) #9
  br label %33

33:                                               ; preds = %32
  %34 = load ptr, ptr %4, align 8
  %35 = load i32, ptr %5, align 4
  %36 = insertvalue { ptr, i32 } poison, ptr %34, 0
  %37 = insertvalue { ptr, i32 } %36, i32 %35, 1
  resume { ptr, i32 } %37

38:                                               ; preds = %25
  unreachable
}